target datalayout = "e-m:e-p270:32:32-p271:32:32-p272:64:64-i64:64-i128:128-f80:128-n8:16:32:64-S128"
target triple = "x86_64-pc-linux-gnu"

%struct.ErrorData = type { i32, i8, i8, i8, i8, ptr, i32, ptr, ptr, ptr, i32, ptr, ptr, ptr, ptr, ptr, ptr, ptr, ptr, ptr, ptr, ptr, ptr, i32, i32, ptr, i32, ptr }
%struct.__va_list_tag = type { i32, i32, ptr, ptr }

@error_context_stack = dso_local global ptr null, align 8
@PG_exception_stack = dso_local global ptr null, align 8
@recursion_depth = internal global i32 0, align 4
@CritSectionCount = external global i32, align 4
@ExitOnAnyError = external global i8, align 1
@proc_exit_inprogress = external global i8, align 1
@errordata_stack_depth = internal global i32 -1, align 4
@errordata = internal global [5 x %struct.ErrorData] zeroinitializer, align 16
@ErrorContext = external global ptr, align 8
@.str = private unnamed_addr constant [61 x i8] c"error occurred before error message processing is available\0A\00", align 1
@debug_query_string = external global ptr, align 8
@.str.1 = private unnamed_addr constant [24 x i8] c"errstart was not called\00", align 1
@.str.2 = private unnamed_addr constant [7 x i8] c"elog.c\00", align 1
@whereToSendOutput = external global i32, align 4
@__func__.errcode = private unnamed_addr constant [8 x i8] c"errcode\00", align 1
@.str.3 = private unnamed_addr constant [12 x i8] c"postgres-18\00", align 1
@stderr = external global ptr, align 8
@log_min_messages = external global i32, align 4
@ClientAuthInProgress = external global i8, align 1
@client_min_messages = external global i32, align 4
@.str.46 = private unnamed_addr constant [30 x i8] c"ERRORDATA_STACK_SIZE exceeded\00", align 1
@__func__.get_error_stack_entry = private unnamed_addr constant [22 x i8] c"get_error_stack_entry\00", align 1

; Function Attrs: inlinehint nounwind uwtable
define internal ptr @err_gettext(ptr noundef %0) #1 {
  %2 = alloca ptr, align 8
  store ptr %0, ptr %2, align 8
  %3 = load ptr, ptr %2, align 8
  ret ptr %3
}

; Function Attrs: inlinehint nounwind uwtable
define internal zeroext i1 @is_log_level_output(i32 noundef %0, i32 noundef %1) #1 {
  %3 = alloca i1, align 1
  %4 = alloca i32, align 4
  %5 = alloca i32, align 4
  store i32 %0, ptr %4, align 4
  store i32 %1, ptr %5, align 4
  %6 = load i32, ptr %4, align 4
  %7 = icmp eq i32 %6, 15
  br i1 %7, label %11, label %8

8:                                                ; preds = %2
  %9 = load i32, ptr %4, align 4
  %10 = icmp eq i32 %9, 16
  br i1 %10, label %11, label %19

11:                                               ; preds = %8, %2
  %12 = load i32, ptr %5, align 4
  %13 = icmp eq i32 %12, 15
  br i1 %13, label %17, label %14

14:                                               ; preds = %11
  %15 = load i32, ptr %5, align 4
  %16 = icmp sle i32 %15, 21
  br i1 %16, label %17, label %18

17:                                               ; preds = %14, %11
  store i1 true, ptr %3, align 1
  br label %40

18:                                               ; preds = %14
  br label %39

19:                                               ; preds = %8
  %20 = load i32, ptr %4, align 4
  %21 = icmp eq i32 %20, 20
  br i1 %21, label %22, label %23

22:                                               ; preds = %19
  store i1 false, ptr %3, align 1
  br label %40

23:                                               ; preds = %19
  %24 = load i32, ptr %5, align 4
  %25 = icmp eq i32 %24, 15
  br i1 %25, label %26, label %31

26:                                               ; preds = %23
  %27 = load i32, ptr %4, align 4
  %28 = icmp sge i32 %27, 22
  br i1 %28, label %29, label %30

29:                                               ; preds = %26
  store i1 true, ptr %3, align 1
  br label %40

30:                                               ; preds = %26
  br label %37

31:                                               ; preds = %23
  %32 = load i32, ptr %4, align 4
  %33 = load i32, ptr %5, align 4
  %34 = icmp sge i32 %32, %33
  br i1 %34, label %35, label %36

35:                                               ; preds = %31
  store i1 true, ptr %3, align 1
  br label %40

36:                                               ; preds = %31
  br label %37

37:                                               ; preds = %36, %30
  br label %38

38:                                               ; preds = %37
  br label %39

39:                                               ; preds = %38, %18
  store i1 false, ptr %3, align 1
  br label %40

40:                                               ; preds = %39, %35, %29, %22, %17
  %41 = load i1, ptr %3, align 1
  ret i1 %41
}

; Function Attrs: nounwind uwtable
define internal void @set_stack_entry_domain(ptr noundef %0, ptr noundef %1) #0 {
  %3 = alloca ptr, align 8
  %4 = alloca ptr, align 8
  store ptr %0, ptr %3, align 8
  store ptr %1, ptr %4, align 8
  %5 = load ptr, ptr %4, align 8
  %6 = icmp ne ptr %5, null
  br i1 %6, label %7, label %9

7:                                                ; preds = %2
  %8 = load ptr, ptr %4, align 8
  br label %10

9:                                                ; preds = %2
  br label %10

10:                                               ; preds = %9, %7
  %11 = phi ptr [ %8, %7 ], [ @.str.3, %9 ]
  %12 = load ptr, ptr %3, align 8
  %13 = getelementptr inbounds nuw %struct.ErrorData, ptr %12, i32 0, i32 8
  store ptr %11, ptr %13, align 8
  %14 = load ptr, ptr %3, align 8
  %15 = getelementptr inbounds nuw %struct.ErrorData, ptr %14, i32 0, i32 8
  %16 = load ptr, ptr %15, align 8
  %17 = load ptr, ptr %3, align 8
  %18 = getelementptr inbounds nuw %struct.ErrorData, ptr %17, i32 0, i32 9
  store ptr %16, ptr %18, align 8
  ret void
}

; Function Attrs: nounwind uwtable
define internal ptr @get_error_stack_entry() #0 {
  %1 = alloca ptr, align 8
  call void @llvm.lifetime.start.p0(i64 8, ptr %1) #16
  %2 = load i32, ptr @errordata_stack_depth, align 4
  %3 = add i32 %2, 1
  store i32 %3, ptr @errordata_stack_depth, align 4
  %4 = load i32, ptr @errordata_stack_depth, align 4
  %5 = icmp sge i32 %4, 5
  %6 = zext i1 %5 to i32
  %7 = icmp ne i32 %6, 0
  %8 = zext i1 %7 to i32
  %9 = sext i32 %8 to i64
  %10 = call i64 @llvm.expect.i64(i64 %9, i64 0)
  %11 = icmp ne i64 %10, 0
  br i1 %11, label %12, label %23

12:                                               ; preds = %0
  store i32 -1, ptr @errordata_stack_depth, align 4
  br label %13

13:                                               ; preds = %12
  br i1 true, label %14, label %16

14:                                               ; preds = %13
  %15 = call zeroext i1 @errstart_cold(i32 noundef 23, ptr noundef null) #18
  br i1 %15, label %18, label %20

16:                                               ; preds = %13
  %17 = call zeroext i1 @errstart(i32 noundef 23, ptr noundef null)
  br i1 %17, label %18, label %20

18:                                               ; preds = %16, %14
  %19 = call i32 (ptr, ...) @errmsg_internal(ptr noundef @.str.46)
  call void @errfinish(ptr noundef @.str.2, i32 noundef 761, ptr noundef @__func__.get_error_stack_entry)
  br label %20

20:                                               ; preds = %18, %16, %14
  unreachable

21:                                               ; No predecessors!
  br label %22

22:                                               ; preds = %21
  br label %23

23:                                               ; preds = %22, %0
  %24 = load i32, ptr @errordata_stack_depth, align 4
  %25 = sext i32 %24 to i64
  %26 = getelementptr inbounds [5 x %struct.ErrorData], ptr @errordata, i64 0, i64 %25
  store ptr %26, ptr %1, align 8
  %27 = load ptr, ptr %1, align 8
  call void @llvm.memset.p0.i64(ptr align 8 %27, i8 0, i64 184, i1 false)
  %28 = call ptr @__errno_location() #19
  %29 = load i32, ptr %28, align 4
  %30 = load ptr, ptr %1, align 8
  %31 = getelementptr inbounds nuw %struct.ErrorData, ptr %30, i32 0, i32 26
  store i32 %29, ptr %31, align 8
  %32 = load ptr, ptr %1, align 8
  call void @llvm.lifetime.end.p0(i64 8, ptr %1) #16
  ret ptr %32
}

; Function Attrs: nounwind uwtable
define dso_local zeroext i1 @in_error_recursion_trouble() #0 {
  %1 = load i32, ptr @recursion_depth, align 4
  %2 = icmp sgt i32 %1, 2
  ret i1 %2
}

; Function Attrs: nounwind uwtable
define dso_local void @write_stderr(ptr noundef %0, ...) #0 {
  %2 = alloca ptr, align 8
  %3 = alloca [1 x %struct.__va_list_tag], align 16
  store ptr %0, ptr %2, align 8
  call void @llvm.lifetime.start.p0(i64 24, ptr %3) #16
  %4 = load ptr, ptr %2, align 8
  %5 = call ptr @err_gettext(ptr noundef %4)
  store ptr %5, ptr %2, align 8
  %6 = getelementptr inbounds [1 x %struct.__va_list_tag], ptr %3, i64 0, i64 0
  call void @llvm.va_start.p0(ptr %6)
  %7 = load ptr, ptr @stderr, align 8
  %8 = load ptr, ptr %2, align 8
  %9 = getelementptr inbounds [1 x %struct.__va_list_tag], ptr %3, i64 0, i64 0
  %10 = call i32 @pg_vfprintf(ptr noundef %7, ptr noundef %8, ptr noundef %9)
  %11 = load ptr, ptr @stderr, align 8
  %12 = call i32 @fflush(ptr noundef %11)
  %13 = getelementptr inbounds [1 x %struct.__va_list_tag], ptr %3, i64 0, i64 0
  call void @llvm.va_end.p0(ptr %13)
  call void @llvm.lifetime.end.p0(i64 24, ptr %3) #16
  ret void
}

; Function Attrs: inlinehint nounwind uwtable
define internal zeroext i1 @should_output_to_client(i32 noundef %0) #1 {
  %2 = alloca i1, align 1
  %3 = alloca i32, align 4
  store i32 %0, ptr %3, align 4
  %4 = load i32, ptr @whereToSendOutput, align 4
  %5 = icmp eq i32 %4, 2
  br i1 %5, label %6, label %24

6:                                                ; preds = %1
  %7 = load i32, ptr %3, align 4
  %8 = icmp ne i32 %7, 16
  br i1 %8, label %9, label %24

9:                                                ; preds = %6
  %10 = load i8, ptr @ClientAuthInProgress, align 1, !range !4, !noundef !5
  %11 = trunc i8 %10 to i1
  br i1 %11, label %12, label %15

12:                                               ; preds = %9
  %13 = load i32, ptr %3, align 4
  %14 = icmp sge i32 %13, 21
  store i1 %14, ptr %2, align 1
  br label %25

15:                                               ; preds = %9
  %16 = load i32, ptr %3, align 4
  %17 = load i32, ptr @client_min_messages, align 4
  %18 = icmp sge i32 %16, %17
  br i1 %18, label %22, label %19

19:                                               ; preds = %15
  %20 = load i32, ptr %3, align 4
  %21 = icmp eq i32 %20, 17
  br label %22

22:                                               ; preds = %19, %15
  %23 = phi i1 [ true, %15 ], [ %21, %19 ]
  store i1 %23, ptr %2, align 1
  br label %25

24:                                               ; preds = %6, %1
  store i1 false, ptr %2, align 1
  br label %25

25:                                               ; preds = %24, %22, %12
  %26 = load i1, ptr %2, align 1
  ret i1 %26
}

; Function Attrs: inlinehint nounwind uwtable
define internal zeroext i1 @should_output_to_server(i32 noundef %0) #1 {
  %2 = alloca i32, align 4
  store i32 %0, ptr %2, align 4
  %3 = load i32, ptr %2, align 4
  %4 = load i32, ptr @log_min_messages, align 4
  %5 = call zeroext i1 @is_log_level_output(i32 noundef %3, i32 noundef %4)
  ret i1 %5
}

; Function Attrs: nounwind uwtable
define dso_local zeroext i1 @errstart(i32 noundef %0, ptr noundef %1) #0 {
  %3 = alloca i1, align 1
  %4 = alloca i32, align 4
  %5 = alloca ptr, align 8
  %6 = alloca ptr, align 8
  %7 = alloca i8, align 1
  %8 = alloca i8, align 1
  %9 = alloca i32, align 4
  %10 = alloca i32, align 4
  store i32 %0, ptr %4, align 4
  store ptr %1, ptr %5, align 8
  call void @llvm.lifetime.start.p0(i64 8, ptr %6) #16
  call void @llvm.lifetime.start.p0(i64 1, ptr %7) #16
  call void @llvm.lifetime.start.p0(i64 1, ptr %8) #16
  store i8 0, ptr %8, align 1
  call void @llvm.lifetime.start.p0(i64 4, ptr %9) #16
  %11 = load i32, ptr %4, align 4
  %12 = icmp sge i32 %11, 21
  br i1 %12, label %13, label %58

13:                                               ; preds = %2
  %14 = load volatile i32, ptr @CritSectionCount, align 4
  %15 = icmp ugt i32 %14, 0
  br i1 %15, label %16, label %17

16:                                               ; preds = %13
  store i32 23, ptr %4, align 4
  br label %17

17:                                               ; preds = %16, %13
  %18 = load i32, ptr %4, align 4
  %19 = icmp eq i32 %18, 21
  br i1 %19, label %20, label %31

20:                                               ; preds = %17
  %21 = load ptr, ptr @PG_exception_stack, align 8
  %22 = icmp eq ptr %21, null
  br i1 %22, label %29, label %23

23:                                               ; preds = %20
  %24 = load i8, ptr @ExitOnAnyError, align 1, !range !4, !noundef !5
  %25 = trunc i8 %24 to i1
  br i1 %25, label %29, label %26

26:                                               ; preds = %23
  %27 = load i8, ptr @proc_exit_inprogress, align 1, !range !4, !noundef !5
  %28 = trunc i8 %27 to i1
  br i1 %28, label %29, label %30

29:                                               ; preds = %26, %23, %20
  store i32 22, ptr %4, align 4
  br label %30

30:                                               ; preds = %29, %26
  br label %31

31:                                               ; preds = %30, %17
  store i32 0, ptr %9, align 4
  br label %32

32:                                               ; preds = %54, %31
  %33 = load i32, ptr %9, align 4
  %34 = load i32, ptr @errordata_stack_depth, align 4
  %35 = icmp sle i32 %33, %34
  br i1 %35, label %36, label %57

36:                                               ; preds = %32
  %37 = load i32, ptr %4, align 4
  %38 = load i32, ptr %9, align 4
  %39 = sext i32 %38 to i64
  %40 = getelementptr inbounds [5 x %struct.ErrorData], ptr @errordata, i64 0, i64 %39
  %41 = getelementptr inbounds nuw %struct.ErrorData, ptr %40, i32 0, i32 0
  %42 = load i32, ptr %41, align 8
  %43 = icmp sgt i32 %37, %42
  br i1 %43, label %44, label %46

44:                                               ; preds = %36
  %45 = load i32, ptr %4, align 4
  br label %52

46:                                               ; preds = %36
  %47 = load i32, ptr %9, align 4
  %48 = sext i32 %47 to i64
  %49 = getelementptr inbounds [5 x %struct.ErrorData], ptr @errordata, i64 0, i64 %48
  %50 = getelementptr inbounds nuw %struct.ErrorData, ptr %49, i32 0, i32 0
  %51 = load i32, ptr %50, align 8
  br label %52

52:                                               ; preds = %46, %44
  %53 = phi i32 [ %45, %44 ], [ %51, %46 ]
  store i32 %53, ptr %4, align 4
  br label %54

54:                                               ; preds = %52
  %55 = load i32, ptr %9, align 4
  %56 = add i32 %55, 1
  store i32 %56, ptr %9, align 4
  br label %32, !llvm.loop !6

57:                                               ; preds = %32
  br label %58

58:                                               ; preds = %57, %2
  %59 = load i32, ptr %4, align 4
  %60 = call zeroext i1 @should_output_to_server(i32 noundef %59)
  %61 = zext i1 %60 to i8
  store i8 %61, ptr %7, align 1
  %62 = load i32, ptr %4, align 4
  %63 = call zeroext i1 @should_output_to_client(i32 noundef %62)
  %64 = zext i1 %63 to i8
  store i8 %64, ptr %8, align 1
  %65 = load i32, ptr %4, align 4
  %66 = icmp slt i32 %65, 21
  br i1 %66, label %67, label %74

67:                                               ; preds = %58
  %68 = load i8, ptr %7, align 1, !range !4, !noundef !5
  %69 = trunc i8 %68 to i1
  br i1 %69, label %74, label %70

70:                                               ; preds = %67
  %71 = load i8, ptr %8, align 1, !range !4, !noundef !5
  %72 = trunc i8 %71 to i1
  br i1 %72, label %74, label %73

73:                                               ; preds = %70
  store i1 false, ptr %3, align 1
  store i32 1, ptr %10, align 4
  br label %128

74:                                               ; preds = %70, %67, %58
  %75 = load ptr, ptr @ErrorContext, align 8
  %76 = icmp eq ptr %75, null
  br i1 %76, label %77, label %78

77:                                               ; preds = %74
  call void (ptr, ...) @write_stderr(ptr noundef @.str)
  call void @exit(i32 noundef 2) #17
  unreachable

78:                                               ; preds = %74
  %79 = load i32, ptr @recursion_depth, align 4
  %80 = add i32 %79, 1
  store i32 %80, ptr @recursion_depth, align 4
  %81 = icmp sgt i32 %79, 0
  br i1 %81, label %82, label %90

82:                                               ; preds = %78
  %83 = load i32, ptr %4, align 4
  %84 = icmp sge i32 %83, 21
  br i1 %84, label %85, label %90

85:                                               ; preds = %82
  %86 = load ptr, ptr @ErrorContext, align 8
  call void @MemoryContextReset(ptr noundef %86)
  %87 = call zeroext i1 @in_error_recursion_trouble()
  br i1 %87, label %88, label %89

88:                                               ; preds = %85
  store ptr null, ptr @error_context_stack, align 8
  store ptr null, ptr @debug_query_string, align 8
  br label %89

89:                                               ; preds = %88, %85
  br label %90

90:                                               ; preds = %89, %82, %78
  %91 = call ptr @get_error_stack_entry()
  store ptr %91, ptr %6, align 8
  %92 = load i32, ptr %4, align 4
  %93 = load ptr, ptr %6, align 8
  %94 = getelementptr inbounds nuw %struct.ErrorData, ptr %93, i32 0, i32 0
  store i32 %92, ptr %94, align 8
  %95 = load i8, ptr %7, align 1, !range !4, !noundef !5
  %96 = trunc i8 %95 to i1
  %97 = load ptr, ptr %6, align 8
  %98 = getelementptr inbounds nuw %struct.ErrorData, ptr %97, i32 0, i32 1
  %99 = zext i1 %96 to i8
  store i8 %99, ptr %98, align 4
  %100 = load i8, ptr %8, align 1, !range !4, !noundef !5
  %101 = trunc i8 %100 to i1
  %102 = load ptr, ptr %6, align 8
  %103 = getelementptr inbounds nuw %struct.ErrorData, ptr %102, i32 0, i32 2
  %104 = zext i1 %101 to i8
  store i8 %104, ptr %103, align 1
  %105 = load ptr, ptr %6, align 8
  %106 = load ptr, ptr %5, align 8
  call void @set_stack_entry_domain(ptr noundef %105, ptr noundef %106)
  %107 = load i32, ptr %4, align 4
  %108 = icmp sge i32 %107, 21
  br i1 %108, label %109, label %112

109:                                              ; preds = %90
  %110 = load ptr, ptr %6, align 8
  %111 = getelementptr inbounds nuw %struct.ErrorData, ptr %110, i32 0, i32 10
  store i32 2600, ptr %111, align 8
  br label %122

112:                                              ; preds = %90
  %113 = load i32, ptr %4, align 4
  %114 = icmp sge i32 %113, 19
  br i1 %114, label %115, label %118

115:                                              ; preds = %112
  %116 = load ptr, ptr %6, align 8
  %117 = getelementptr inbounds nuw %struct.ErrorData, ptr %116, i32 0, i32 10
  store i32 64, ptr %117, align 8
  br label %121

118:                                              ; preds = %112
  %119 = load ptr, ptr %6, align 8
  %120 = getelementptr inbounds nuw %struct.ErrorData, ptr %119, i32 0, i32 10
  store i32 0, ptr %120, align 8
  br label %121

121:                                              ; preds = %118, %115
  br label %122

122:                                              ; preds = %121, %109
  %123 = load ptr, ptr @ErrorContext, align 8
  %124 = load ptr, ptr %6, align 8
  %125 = getelementptr inbounds nuw %struct.ErrorData, ptr %124, i32 0, i32 27
  store ptr %123, ptr %125, align 8
  %126 = load i32, ptr @recursion_depth, align 4
  %127 = add i32 %126, -1
  store i32 %127, ptr @recursion_depth, align 4
  store i1 true, ptr %3, align 1
  store i32 1, ptr %10, align 4
  br label %128

128:                                              ; preds = %122, %73
  call void @llvm.lifetime.end.p0(i64 4, ptr %9) #16
  call void @llvm.lifetime.end.p0(i64 1, ptr %8) #16
  call void @llvm.lifetime.end.p0(i64 1, ptr %7) #16
  call void @llvm.lifetime.end.p0(i64 8, ptr %6) #16
  %129 = load i1, ptr %3, align 1
  ret i1 %129
}

; Function Attrs: nounwind uwtable
define dso_local i32 @errcode(i32 noundef %0) #0 {
  %2 = alloca i32, align 4
  %3 = alloca ptr, align 8
  store i32 %0, ptr %2, align 4
  call void @llvm.lifetime.start.p0(i64 8, ptr %3) #16
  %4 = load i32, ptr @errordata_stack_depth, align 4
  %5 = sext i32 %4 to i64
  %6 = getelementptr inbounds [5 x %struct.ErrorData], ptr @errordata, i64 0, i64 %5
  store ptr %6, ptr %3, align 8
  br label %7

7:                                                ; preds = %1
  %8 = load i32, ptr @errordata_stack_depth, align 4
  %9 = icmp slt i32 %8, 0
  br i1 %9, label %10, label %21

10:                                               ; preds = %7
  store i32 -1, ptr @errordata_stack_depth, align 4
  br label %11

11:                                               ; preds = %10
  br i1 true, label %12, label %14

12:                                               ; preds = %11
  %13 = call zeroext i1 @errstart_cold(i32 noundef 21, ptr noundef null) #18
  br i1 %13, label %16, label %18

14:                                               ; preds = %11
  %15 = call zeroext i1 @errstart(i32 noundef 21, ptr noundef null)
  br i1 %15, label %16, label %18

16:                                               ; preds = %14, %12
  %17 = call i32 (ptr, ...) @errmsg_internal(ptr noundef @.str.1)
  call void @errfinish(ptr noundef @.str.2, i32 noundef 858, ptr noundef @__func__.errcode)
  br label %18

18:                                               ; preds = %16, %14, %12
  unreachable

19:                                               ; No predecessors!
  br label %20

20:                                               ; preds = %19
  br label %21

21:                                               ; preds = %20, %7
  br label %22

22:                                               ; preds = %21
  br label %23

23:                                               ; preds = %22
  %24 = load i32, ptr %2, align 4
  %25 = load ptr, ptr %3, align 8
  %26 = getelementptr inbounds nuw %struct.ErrorData, ptr %25, i32 0, i32 10
  store i32 %24, ptr %26, align 8
  call void @llvm.lifetime.end.p0(i64 8, ptr %3) #16
  ret i32 0
}